; Function Attrs: mustprogress null_pointer_is_valid sspstrong uwtable
define void @_ZN23LBMLBTRUTransportDialog37custom_receiver_context_menuRequestedERK6QPoint(ptr noundef readonly align 8 captures(none) dereferenceable_or_null(112) %0, ptr noundef align 4 dereferenceable(8) %1) local_unnamed_addr #0 align 2 {
  %3 = alloca %class.QPoint, align 8
  %4 = getelementptr inbounds nuw i8, ptr %0, i64 96
  %5 = load ptr, ptr %4, align 8
  call void @llvm.lifetime.start.p0(i64 8, ptr nonnull %3) #19
  %6 = getelementptr inbounds nuw i8, ptr %0, i64 104
  %7 = load ptr, ptr %6, align 8
  %8 = tail call i64 @_ZNK7QWidget11mapToGlobalERK6QPoint(ptr noundef align 8 dereferenceable_or_null(40) %7, ptr noundef align 4 dereferenceable(8) %1)
  store i64 %8, ptr %3, align 8
  call void @_ZN5QMenu5popupERK6QPointP7QAction(ptr noundef align 8 dereferenceable_or_null(40) %5, ptr noundef nonnull align 4 dereferenceable(8) %3, ptr noundef null)
  call void @llvm.lifetime.end.p0(i64 8, ptr nonnull %3) #19
  ret void
}